target datalayout = "e-m:e-p270:32:32-p271:32:32-p272:64:64-i64:64-i128:128-f80:128-n8:16:32:64-S128"
target triple = "x86_64-pc-linux-gnu"

; Function Attrs: inlinehint mustprogress nounwind uwtable
define internal noundef double @_ZN2cv12cpu_baselineL8dotProd_IhEEdPKT_S4_i(ptr noundef %0, ptr noundef %1, i32 noundef %2) #7 {
  %4 = alloca ptr, align 8
  %5 = alloca ptr, align 8
  %6 = alloca i32, align 4
  %7 = alloca i32, align 4
  %8 = alloca double, align 8
  store ptr %0, ptr %4, align 8, !tbaa !24
  store ptr %1, ptr %5, align 8, !tbaa !24
  store i32 %2, ptr %6, align 4, !tbaa !12
  call void @llvm.lifetime.start.p0(i64 4, ptr %7) #3
  store i32 0, ptr %7, align 4, !tbaa !12
  call void @llvm.lifetime.start.p0(i64 8, ptr %8) #3
  store double 0.000000e+00, ptr %8, align 8, !tbaa !21
  br label %9

9:                                                ; preds = %29, %3
  %10 = load i32, ptr %7, align 4, !tbaa !12
  %11 = load i32, ptr %6, align 4, !tbaa !12
  %12 = icmp slt i32 %10, %11
  br i1 %12, label %13, label %32

13:                                               ; preds = %9
  %14 = load ptr, ptr %4, align 8, !tbaa !24
  %15 = load i32, ptr %7, align 4, !tbaa !12
  %16 = sext i32 %15 to i64
  %17 = getelementptr inbounds i8, ptr %14, i64 %16
  %18 = load i8, ptr %17, align 1, !tbaa !63
  %19 = uitofp i8 %18 to double
  %20 = load ptr, ptr %5, align 8, !tbaa !24
  %21 = load i32, ptr %7, align 4, !tbaa !12
  %22 = sext i32 %21 to i64
  %23 = getelementptr inbounds i8, ptr %20, i64 %22
  %24 = load i8, ptr %23, align 1, !tbaa !63
  %25 = zext i8 %24 to i32
  %26 = sitofp i32 %25 to double
  %27 = load double, ptr %8, align 8, !tbaa !21
  %28 = call double @llvm.fmuladd.f64(double %19, double %26, double %27)
  store double %28, ptr %8, align 8, !tbaa !21
  br label %29

29:                                               ; preds = %13
  %30 = load i32, ptr %7, align 4, !tbaa !12
  %31 = add nsw i32 %30, 1
  store i32 %31, ptr %7, align 4, !tbaa !12
  br label %9, !llvm.loop !281

32:                                               ; preds = %9
  %33 = load double, ptr %8, align 8, !tbaa !21
  call void @llvm.lifetime.end.p0(i64 8, ptr %8) #3
  call void @llvm.lifetime.end.p0(i64 4, ptr %7) #3
  ret double %33
}

; Function Attrs: mustprogress uwtable
define hidden noundef double @_ZN2cv12cpu_baseline10dotProd_8uEPKhS2_i(ptr noundef %0, ptr noundef %1, i32 noundef %2) #4 {
  %4 = alloca ptr, align 8
  %5 = alloca ptr, align 8
  %6 = alloca i32, align 4
  %7 = alloca double, align 8
  %8 = alloca i32, align 4
  store ptr %0, ptr %4, align 8, !tbaa !24
  store ptr %1, ptr %5, align 8, !tbaa !24
  store i32 %2, ptr %6, align 4, !tbaa !12
  call void @llvm.lifetime.start.p0(i64 8, ptr %7) #3
  store double 0.000000e+00, ptr %7, align 8, !tbaa !21
  call void @llvm.lifetime.start.p0(i64 4, ptr %8) #3
  store i32 0, ptr %8, align 4, !tbaa !12
  %9 = load double, ptr %7, align 8, !tbaa !21
  %10 = load ptr, ptr %4, align 8, !tbaa !24
  %11 = load ptr, ptr %5, align 8, !tbaa !24
  %12 = load i32, ptr %6, align 4, !tbaa !12
  %13 = load i32, ptr %8, align 4, !tbaa !12
  %14 = sub nsw i32 %12, %13
  %15 = call noundef double @_ZN2cv12cpu_baselineL8dotProd_IhEEdPKT_S4_i(ptr noundef %10, ptr noundef %11, i32 noundef %14)
  %16 = fadd double %9, %15
  call void @llvm.lifetime.end.p0(i64 4, ptr %8) #3
  call void @llvm.lifetime.end.p0(i64 8, ptr %7) #3
  ret double %16
}